; Function Attrs: nounwind uwtable
define internal noalias noundef ptr @_dep_agent(ptr noundef %0) #1 {
  %2 = alloca ptr, align 8
  %3 = alloca ptr, align 8
  call void @llvm.lifetime.start.p0(i64 8, ptr nonnull %2) #12
  store ptr null, ptr %2, align 8
  %4 = tail call i32 @usleep(i32 noundef 100000) #12
  tail call void @lock_slurmctld(ptr noundef nonnull byval(%struct.slurmctld_lock_t) align 8 @__const._dep_agent.job_write_lock) #12
  %.not = icmp eq ptr %0, null
  br i1 %.not, label %.critedge, label %5

5:                                                ; preds = %1
  %6 = getelementptr inbounds nuw i8, ptr %0, i64 216
  %7 = load ptr, ptr %6, align 8
  %.not14 = icmp eq ptr %7, null
  br i1 %.not14, label %.critedge, label %8

8:                                                ; preds = %5
  %9 = load i32, ptr %0, align 8
  %10 = icmp eq i32 %9, -256427732
  br i1 %10, label %11, label %.critedge

11:                                               ; preds = %8
  %12 = getelementptr inbounds nuw i8, ptr %0, i64 144
  %13 = load ptr, ptr %12, align 8
  %.not15 = icmp eq ptr %13, null
  br i1 %.not15, label %.critedge, label %14

14:                                               ; preds = %11
  %15 = tail call ptr @strstr(ptr noundef nonnull dereferenceable(1) %13, ptr noundef nonnull dereferenceable(1) @.str.11) #13
  %.not16 = icmp eq ptr %15, null
  br i1 %.not16, label %.critedge, label %16

16:                                               ; preds = %14
  call void @llvm.lifetime.start.p0(i64 8, ptr nonnull %3) #12
  %17 = getelementptr inbounds nuw i8, ptr %7, i64 128
  %18 = load ptr, ptr %17, align 8
  store ptr %18, ptr %3, align 8
  store ptr null, ptr %17, align 8
  %19 = tail call i32 @update_job_dependency(ptr noundef nonnull %0, ptr noundef %18) #12
  call void @slurm_xfree(ptr noundef nonnull %3) #12
  %20 = load ptr, ptr %12, align 8
  %21 = call ptr @strstr(ptr noundef nonnull dereferenceable(1) %20, ptr noundef nonnull dereferenceable(1) @.str.11) #13
  %22 = getelementptr inbounds nuw i8, ptr %21, i64 3
  %23 = call i64 @strtol(ptr noundef nonnull %22, ptr noundef nonnull %2, i32 noundef 10) #12
  call void @llvm.lifetime.end.p0(i64 8, ptr nonnull %3) #12
  %24 = and i64 %23, 4294967295
  %25 = icmp eq i64 %24, 0
  br i1 %25, label %.critedge, label %26

.critedge:                                        ; preds = %14, %11, %8, %5, %1, %16
  call void @set_job_prio(ptr noundef %0) #12
  br label %26

26:                                               ; preds = %.critedge, %16
  call void @unlock_slurmctld(ptr noundef nonnull byval(%struct.slurmctld_lock_t) align 8 @__const._dep_agent.job_write_lock) #12
  call void @llvm.lifetime.end.p0(i64 8, ptr nonnull %2) #12
  ret ptr null
}